; Function Attrs: mustprogress nofree norecurse nosync nounwind willreturn memory(argmem: write) uwtable
define hidden void @_ZN5zxing15LuminanceSourceC2Eii(ptr nocapture noundef nonnull writeonly align 8 dereferenceable(20) %0, i32 noundef %1, i32 noundef %2) unnamed_addr #0 align 2 {
  %4 = getelementptr inbounds i8, ptr %0, i64 8
  store i32 0, ptr %4, align 8
  store ptr getelementptr inbounds inrange(-16, 72) (i8, ptr @_ZTVN5zxing15LuminanceSourceE, i64 16), ptr %0, align 8
  %5 = getelementptr inbounds i8, ptr %0, i64 12
  store i32 %1, ptr %5, align 4
  %6 = getelementptr inbounds i8, ptr %0, i64 16
  store i32 %2, ptr %6, align 8
  ret void
}